; Function Attrs: mustprogress uwtable
define internal void @"_ZN4LuauL8fnVisitRIRZNS_L8traverseERNS_12_GLOBAL__N_114TraversalStateERKNS_8TypePath4PathEE3$_0bKNS4_9ReductionEEEvRT_RT0_PNSt11conditionalIXsr3stdE10is_const_vIT1_EEKvvE4typeE"(ptr noundef nonnull readonly align 8 captures(none) dereferenceable(8) %0, ptr noundef nonnull writeonly align 1 captures(none) dereferenceable(1) %1, ptr noundef readonly captures(none) %2) #8 personality ptr @__gxx_personality_v0 {
  %4 = alloca %"class.Luau::Variant.14", align 8
  %.val = load ptr, ptr %0, align 8, !tbaa !102
  %.val3 = load ptr, ptr %2, align 8, !tbaa !71
  %5 = getelementptr inbounds nuw i8, ptr %.val, i64 24
  %6 = load i32, ptr %5, align 8, !tbaa !74
  %7 = add nsw i32 %6, 1
  store i32 %7, ptr %5, align 8, !tbaa !74
  %8 = load i32, ptr @_ZN5DFInt32LuauTypePathMaximumTraverseStepsE, align 8, !tbaa !104
  %.not.i.i = icmp slt i32 %6, %8
  br i1 %.not.i.i, label %9, label %"_ZZN4LuauL8traverseERNS_12_GLOBAL__N_114TraversalStateERKNS_8TypePath4PathEENK3$_0clIRKNS3_9ReductionEEEDaOT_.exit"

9:                                                ; preds = %3
  call void @llvm.lifetime.start.p0(i64 16, ptr nonnull %4) #29
  %10 = tail call noundef ptr @_ZN4Luau6followEPKNS_4TypeE(ptr noundef %.val3)
  store i32 0, ptr %4, align 8, !tbaa !69
  %11 = getelementptr inbounds nuw i8, ptr %4, i64 8
  store ptr %10, ptr %11, align 8, !tbaa !71
  %.not.i.i.i.i = icmp eq ptr %.val, %4
  br i1 %.not.i.i.i.i, label %_ZN4Luau7VariantIJPKNS_4TypeEPKNS_11TypePackVarEEEaSEOS7_.exit.i.i.i, label %12

12:                                               ; preds = %9
  %13 = load i32, ptr %.val, align 8, !tbaa !69
  %14 = sext i32 %13 to i64
  %15 = getelementptr inbounds [2 x ptr], ptr @_ZN4Luau7VariantIJPKNS_4TypeEPKNS_11TypePackVarEEE9tableDtorE, i64 0, i64 %14
  %16 = load ptr, ptr %15, align 8, !tbaa !14
  %17 = getelementptr inbounds nuw i8, ptr %.val, i64 8
  invoke void %16(ptr noundef nonnull %17)
          to label %.noexc.i.i.i unwind label %29

.noexc.i.i.i:                                     ; preds = %12
  %18 = load i32, ptr %4, align 8, !tbaa !69
  store i32 %18, ptr %.val, align 8, !tbaa !69
  %19 = sext i32 %18 to i64
  %20 = getelementptr inbounds [2 x ptr], ptr @_ZN4Luau7VariantIJPKNS_4TypeEPKNS_11TypePackVarEEE9tableMoveE, i64 0, i64 %19
  %21 = load ptr, ptr %20, align 8, !tbaa !14
  invoke void %21(ptr noundef nonnull %17, ptr noundef nonnull %11)
          to label %.noexc._ZN4Luau7VariantIJPKNS_4TypeEPKNS_11TypePackVarEEEaSEOS7_.exit_crit_edge.i.i.i unwind label %29

.noexc._ZN4Luau7VariantIJPKNS_4TypeEPKNS_11TypePackVarEEEaSEOS7_.exit_crit_edge.i.i.i: ; preds = %.noexc.i.i.i
  %.pre.i.i.i = load i32, ptr %4, align 8, !tbaa !69
  %22 = sext i32 %.pre.i.i.i to i64
  br label %_ZN4Luau7VariantIJPKNS_4TypeEPKNS_11TypePackVarEEEaSEOS7_.exit.i.i.i

_ZN4Luau7VariantIJPKNS_4TypeEPKNS_11TypePackVarEEEaSEOS7_.exit.i.i.i: ; preds = %.noexc._ZN4Luau7VariantIJPKNS_4TypeEPKNS_11TypePackVarEEEaSEOS7_.exit_crit_edge.i.i.i, %9
  %23 = phi i64 [ %22, %.noexc._ZN4Luau7VariantIJPKNS_4TypeEPKNS_11TypePackVarEEEaSEOS7_.exit_crit_edge.i.i.i ], [ 0, %9 ]
  %24 = getelementptr inbounds [2 x ptr], ptr @_ZN4Luau7VariantIJPKNS_4TypeEPKNS_11TypePackVarEEE9tableDtorE, i64 0, i64 %23
  %25 = load ptr, ptr %24, align 8, !tbaa !14
  invoke void %25(ptr noundef nonnull %11)
          to label %_ZN4Luau12_GLOBAL__N_114TraversalState13updateCurrentEPKNS_4TypeE.exit.i.i unwind label %26

26:                                               ; preds = %_ZN4Luau7VariantIJPKNS_4TypeEPKNS_11TypePackVarEEEaSEOS7_.exit.i.i.i
  %27 = landingpad { ptr, i32 }
          catch ptr null
  %28 = extractvalue { ptr, i32 } %27, 0
  call void @__clang_call_terminate(ptr %28) #27
  unreachable

29:                                               ; preds = %.noexc.i.i.i, %12
  %30 = landingpad { ptr, i32 }
          cleanup
  %31 = load i32, ptr %4, align 8, !tbaa !69
  %32 = sext i32 %31 to i64
  %33 = getelementptr inbounds [2 x ptr], ptr @_ZN4Luau7VariantIJPKNS_4TypeEPKNS_11TypePackVarEEE9tableDtorE, i64 0, i64 %32
  %34 = load ptr, ptr %33, align 8, !tbaa !14
  invoke void %34(ptr noundef nonnull %11)
          to label %_ZN4Luau7VariantIJPKNS_4TypeEPKNS_11TypePackVarEEED2Ev.exit4.i.i.i unwind label %35

35:                                               ; preds = %29
  %36 = landingpad { ptr, i32 }
          catch ptr null
  %37 = extractvalue { ptr, i32 } %36, 0
  call void @__clang_call_terminate(ptr %37) #27
  unreachable

_ZN4Luau7VariantIJPKNS_4TypeEPKNS_11TypePackVarEEED2Ev.exit4.i.i.i: ; preds = %29
  call void @llvm.lifetime.end.p0(i64 16, ptr nonnull %4) #29
  resume { ptr, i32 } %30

_ZN4Luau12_GLOBAL__N_114TraversalState13updateCurrentEPKNS_4TypeE.exit.i.i: ; preds = %_ZN4Luau7VariantIJPKNS_4TypeEPKNS_11TypePackVarEEEaSEOS7_.exit.i.i.i
  call void @llvm.lifetime.end.p0(i64 16, ptr nonnull %4) #29
  br label %"_ZZN4LuauL8traverseERNS_12_GLOBAL__N_114TraversalStateERKNS_8TypePath4PathEENK3$_0clIRKNS3_9ReductionEEEDaOT_.exit"

"_ZZN4LuauL8traverseERNS_12_GLOBAL__N_114TraversalStateERKNS_8TypePath4PathEENK3$_0clIRKNS3_9ReductionEEEDaOT_.exit": ; preds = %3, %_ZN4Luau12_GLOBAL__N_114TraversalState13updateCurrentEPKNS_4TypeE.exit.i.i
  %38 = zext i1 %.not.i.i to i8
  store i8 %38, ptr %1, align 1, !tbaa !48
  ret void
}